target datalayout = "e-m:e-p270:32:32-p271:32:32-p272:64:64-i64:64-i128:128-f80:128-n8:16:32:64-S128"
target triple = "x86_64-pc-linux-gnu"

@hf_gluster_op_errno = internal global i32 0, align 4
@hf_glusterfs_entries = internal global i32 0, align 4
@.str.565 = private unnamed_addr constant [23 x i8] c" (More replies follow)\00", align 1
@.str.566 = private unnamed_addr constant [14 x i8] c" (Last reply)\00", align 1

; Function Attrs: null_pointer_is_valid sspstrong uwtable
define internal i32 @_glusterfs_gfs3_common_readdir_reply(ptr noundef %0, ptr noundef %1, i32 noundef %2) #0 {
  %4 = alloca ptr, align 8
  %5 = alloca ptr, align 8
  %6 = alloca i32, align 4
  %7 = alloca ptr, align 8
  %8 = alloca i32, align 4
  store ptr %0, ptr %4, align 8
  store ptr %1, ptr %5, align 8
  store i32 %2, ptr %6, align 4
  call void @llvm.lifetime.start.p0(i64 8, ptr %7) #5
  call void @llvm.lifetime.start.p0(i64 4, ptr %8) #5
  %9 = load ptr, ptr %4, align 8
  %10 = load ptr, ptr %5, align 8
  %11 = load i32, ptr @hf_glusterfs_entries, align 4
  %12 = load i32, ptr %6, align 4
  %13 = call i32 @dissect_rpc_uint32(ptr noundef %9, ptr noundef %10, i32 noundef %11, i32 noundef %12)
  store i32 %13, ptr %6, align 4
  %14 = load ptr, ptr %4, align 8
  %15 = load i32, ptr %6, align 4
  %16 = call i32 @tvb_get_ntohl(ptr noundef %14, i32 noundef %15)
  store i32 %16, ptr %8, align 4
  %17 = load ptr, ptr %5, align 8
  %18 = load i32, ptr @hf_gluster_op_errno, align 4
  %19 = load ptr, ptr %4, align 8
  %20 = load i32, ptr %6, align 4
  %21 = load i32, ptr %8, align 4
  %22 = call ptr @proto_tree_add_int(ptr noundef %17, i32 noundef %18, ptr noundef %19, i32 noundef %20, i32 noundef 4, i32 noundef %21)
  store ptr %22, ptr %7, align 8
  %23 = load i32, ptr %8, align 4
  %24 = icmp eq i32 %23, 0
  br i1 %24, label %25, label %27

25:                                               ; preds = %3
  %26 = load ptr, ptr %7, align 8
  call void (ptr, ptr, ...) @proto_item_append_text(ptr noundef %26, ptr noundef @.str.565)
  br label %33

27:                                               ; preds = %3
  %28 = load i32, ptr %8, align 4
  %29 = icmp eq i32 %28, 2
  br i1 %29, label %30, label %32

30:                                               ; preds = %27
  %31 = load ptr, ptr %7, align 8
  call void (ptr, ptr, ...) @proto_item_append_text(ptr noundef %31, ptr noundef @.str.566)
  br label %32

32:                                               ; preds = %30, %27
  br label %33

33:                                               ; preds = %32, %25
  %34 = load i32, ptr %6, align 4
  %35 = add i32 %34, 4
  store i32 %35, ptr %6, align 4
  %36 = load i32, ptr %6, align 4
  call void @llvm.lifetime.end.p0(i64 4, ptr %8) #5
  call void @llvm.lifetime.end.p0(i64 8, ptr %7) #5
  ret i32 %36
}

; Function Attrs: null_pointer_is_valid sspstrong uwtable
define internal i32 @glusterfs_gfs3_op_readdirp_reply(ptr noundef %0, ptr noundef %1, ptr noundef %2, ptr noundef %3) #0 {
  %5 = alloca ptr, align 8
  %6 = alloca ptr, align 8
  %7 = alloca ptr, align 8
  %8 = alloca ptr, align 8
  %9 = alloca i32, align 4
  store ptr %0, ptr %5, align 8
  store ptr %1, ptr %6, align 8
  store ptr %2, ptr %7, align 8
  store ptr %3, ptr %8, align 8
  call void @llvm.lifetime.start.p0(i64 4, ptr %9) #5
  store i32 0, ptr %9, align 4
  %10 = load ptr, ptr %5, align 8
  %11 = load ptr, ptr %7, align 8
  %12 = load i32, ptr %9, align 4
  %13 = call i32 @_glusterfs_gfs3_common_readdir_reply(ptr noundef %10, ptr noundef %11, i32 noundef %12)
  store i32 %13, ptr %9, align 4
  %14 = load ptr, ptr %5, align 8
  %15 = load ptr, ptr %6, align 8
  %16 = load ptr, ptr %7, align 8
  %17 = load i32, ptr %9, align 4
  %18 = call i32 @dissect_rpc_list(ptr noundef %14, ptr noundef %15, ptr noundef %16, i32 noundef %17, ptr noundef @glusterfs_gfs3_op_readdirp_entry, ptr noundef null)
  store i32 %18, ptr %9, align 4
  %19 = load i32, ptr %9, align 4
  call void @llvm.lifetime.end.p0(i64 4, ptr %9) #5
  ret i32 %19
}